target datalayout = "e-m:e-p270:32:32-p271:32:32-p272:64:64-i64:64-i128:128-f80:128-n8:16:32:64-S128"
target triple = "x86_64-pc-linux-gnu"

%"struct.Luau::Location" = type { %"struct.Luau::Position", %"struct.Luau::Position" }
%"struct.Luau::Position" = type { i32, i32 }
%"class.std::__cxx11::basic_string" = type { %"struct.std::__cxx11::basic_string<char>::_Alloc_hider", i64, %union.anon }
%"struct.std::__cxx11::basic_string<char>::_Alloc_hider" = type { ptr }
%union.anon = type { i64, [8 x i8] }
%"class.std::vector" = type { %"struct.std::_Vector_base" }
%"struct.std::_Vector_base" = type { %"struct.std::_Vector_base<Luau::ParseError, std::allocator<Luau::ParseError>>::_Vector_impl" }
%"struct.std::_Vector_base<Luau::ParseError, std::allocator<Luau::ParseError>>::_Vector_impl" = type { %"struct.std::_Vector_base<Luau::ParseError, std::allocator<Luau::ParseError>>::_Vector_impl_data" }
%"struct.std::_Vector_base<Luau::ParseError, std::allocator<Luau::ParseError>>::_Vector_impl_data" = type { ptr, ptr, ptr }
%"class.std::vector.4" = type { %"struct.std::_Vector_base.5" }
%"struct.std::_Vector_base.5" = type { %"struct.std::_Vector_base<Luau::HotComment, std::allocator<Luau::HotComment>>::_Vector_impl" }
%"struct.std::_Vector_base<Luau::HotComment, std::allocator<Luau::HotComment>>::_Vector_impl" = type { %"struct.std::_Vector_base<Luau::HotComment, std::allocator<Luau::HotComment>>::_Vector_impl_data" }
%"struct.std::_Vector_base<Luau::HotComment, std::allocator<Luau::HotComment>>::_Vector_impl_data" = type { ptr, ptr, ptr }
%"class.std::vector.9" = type { %"struct.std::_Vector_base.10" }
%"struct.std::_Vector_base.10" = type { %"struct.std::_Vector_base<Luau::Comment, std::allocator<Luau::Comment>>::_Vector_impl" }
%"struct.std::_Vector_base<Luau::Comment, std::allocator<Luau::Comment>>::_Vector_impl" = type { %"struct.std::_Vector_base<Luau::Comment, std::allocator<Luau::Comment>>::_Vector_impl_data" }
%"struct.std::_Vector_base<Luau::Comment, std::allocator<Luau::Comment>>::_Vector_impl_data" = type { ptr, ptr, ptr }
%"class.Luau::DenseHashMap" = type { %"class.Luau::detail::DenseHashTable" }
%"class.Luau::detail::DenseHashTable" = type <{ ptr, i64, i64, ptr, [8 x i8] }>
%"class.Luau::Parser" = type { %"struct.Luau::ParseOptions", %"class.Luau::Lexer", ptr, %"class.std::vector.9", %"class.std::vector.4", i8, i32, %"struct.Luau::AstName", %"struct.Luau::AstName", %"struct.Luau::AstName", %"struct.Luau::AstName", %"struct.Luau::Parser::MatchLexeme", %"class.std::vector.30", i64, %"class.Luau::DenseHashMap.15", %"class.std::vector.18", %"class.std::vector", %"class.std::vector.35", %"class.std::vector.40", %"class.std::vector.45", %"class.std::vector.50", %"class.std::vector.50", %"class.std::vector.55", %"class.std::vector.55", %"class.std::vector.60", %"class.std::vector.60", %"class.std::vector.65", %"class.std::vector.18", %"class.std::vector.70", %"class.std::vector.75", %"class.std::vector.80", %"class.std::vector.85", %"class.std::vector.90", %"class.std::vector.95", %"class.std::vector.100", %"class.std::vector.105", %"class.std::vector.110", %"class.std::vector.115", %"class.std::vector.120", %"class.std::vector.125", %"class.std::__cxx11::basic_string", %"class.Luau::DenseHashMap" }
%"struct.Luau::ParseOptions" = type { i8, i8, [6 x i8], %"class.std::optional", i8, i8, [6 x i8] }
%"class.std::optional" = type { %"struct.std::_Optional_base" }
%"struct.std::_Optional_base" = type { %"struct.std::_Optional_payload" }
%"struct.std::_Optional_payload" = type { %"struct.std::_Optional_payload.base", [7 x i8] }
%"struct.std::_Optional_payload.base" = type { %"struct.std::_Optional_payload_base.base" }
%"struct.std::_Optional_payload_base.base" = type <{ %"union.std::_Optional_payload_base<Luau::FragmentParseResumeSettings>::_Storage", i8 }>
%"union.std::_Optional_payload_base<Luau::FragmentParseResumeSettings>::_Storage" = type { %"struct.Luau::FragmentParseResumeSettings" }
%"struct.Luau::FragmentParseResumeSettings" = type { %"class.Luau::DenseHashMap.15", %"class.std::vector.18", %"struct.Luau::Position" }
%"class.Luau::Lexer" = type { ptr, i64, i32, i32, i32, %"struct.Luau::Lexeme", %"struct.Luau::Location", ptr, i8, i8, %"class.std::vector.25" }
%"struct.Luau::Lexeme" = type { i32, %"struct.Luau::Location", i32, %union.anon.24 }
%union.anon.24 = type { ptr }
%"class.std::vector.25" = type { %"struct.std::_Vector_base.26" }
%"struct.std::_Vector_base.26" = type { %"struct.std::_Vector_base<Luau::Lexer::BraceType, std::allocator<Luau::Lexer::BraceType>>::_Vector_impl" }
%"struct.std::_Vector_base<Luau::Lexer::BraceType, std::allocator<Luau::Lexer::BraceType>>::_Vector_impl" = type { %"struct.std::_Vector_base<Luau::Lexer::BraceType, std::allocator<Luau::Lexer::BraceType>>::_Vector_impl_data" }
%"struct.std::_Vector_base<Luau::Lexer::BraceType, std::allocator<Luau::Lexer::BraceType>>::_Vector_impl_data" = type { ptr, ptr, ptr }
%"struct.Luau::AstName" = type { ptr }
%"struct.Luau::Parser::MatchLexeme" = type { i32, %"struct.Luau::Position" }
%"class.std::vector.30" = type { %"struct.std::_Vector_base.31" }
%"struct.std::_Vector_base.31" = type { %"struct.std::_Vector_base<Luau::Parser::Function, std::allocator<Luau::Parser::Function>>::_Vector_impl" }
%"struct.std::_Vector_base<Luau::Parser::Function, std::allocator<Luau::Parser::Function>>::_Vector_impl" = type { %"struct.std::_Vector_base<Luau::Parser::Function, std::allocator<Luau::Parser::Function>>::_Vector_impl_data" }
%"struct.std::_Vector_base<Luau::Parser::Function, std::allocator<Luau::Parser::Function>>::_Vector_impl_data" = type { ptr, ptr, ptr }
%"class.Luau::DenseHashMap.15" = type { %"class.Luau::detail::DenseHashTable.16" }
%"class.Luau::detail::DenseHashTable.16" = type <{ ptr, i64, i64, %"struct.Luau::AstName", [8 x i8] }>
%"class.std::vector.35" = type { %"struct.std::_Vector_base.36" }
%"struct.std::_Vector_base.36" = type { %"struct.std::_Vector_base<unsigned int, std::allocator<unsigned int>>::_Vector_impl" }
%"struct.std::_Vector_base<unsigned int, std::allocator<unsigned int>>::_Vector_impl" = type { %"struct.std::_Vector_base<unsigned int, std::allocator<unsigned int>>::_Vector_impl_data" }
%"struct.std::_Vector_base<unsigned int, std::allocator<unsigned int>>::_Vector_impl_data" = type { ptr, ptr, ptr }
%"class.std::vector.40" = type { %"struct.std::_Vector_base.41" }
%"struct.std::_Vector_base.41" = type { %"struct.std::_Vector_base<Luau::AstAttr *, std::allocator<Luau::AstAttr *>>::_Vector_impl" }
%"struct.std::_Vector_base<Luau::AstAttr *, std::allocator<Luau::AstAttr *>>::_Vector_impl" = type { %"struct.std::_Vector_base<Luau::AstAttr *, std::allocator<Luau::AstAttr *>>::_Vector_impl_data" }
%"struct.std::_Vector_base<Luau::AstAttr *, std::allocator<Luau::AstAttr *>>::_Vector_impl_data" = type { ptr, ptr, ptr }
%"class.std::vector.45" = type { %"struct.std::_Vector_base.46" }
%"struct.std::_Vector_base.46" = type { %"struct.std::_Vector_base<Luau::AstStat *, std::allocator<Luau::AstStat *>>::_Vector_impl" }
%"struct.std::_Vector_base<Luau::AstStat *, std::allocator<Luau::AstStat *>>::_Vector_impl" = type { %"struct.std::_Vector_base<Luau::AstStat *, std::allocator<Luau::AstStat *>>::_Vector_impl_data" }
%"struct.std::_Vector_base<Luau::AstStat *, std::allocator<Luau::AstStat *>>::_Vector_impl_data" = type { ptr, ptr, ptr }
%"class.std::vector.50" = type { %"struct.std::_Vector_base.51" }
%"struct.std::_Vector_base.51" = type { %"struct.std::_Vector_base<Luau::AstArray<char>, std::allocator<Luau::AstArray<char>>>::_Vector_impl" }
%"struct.std::_Vector_base<Luau::AstArray<char>, std::allocator<Luau::AstArray<char>>>::_Vector_impl" = type { %"struct.std::_Vector_base<Luau::AstArray<char>, std::allocator<Luau::AstArray<char>>>::_Vector_impl_data" }
%"struct.std::_Vector_base<Luau::AstArray<char>, std::allocator<Luau::AstArray<char>>>::_Vector_impl_data" = type { ptr, ptr, ptr }
%"class.std::vector.55" = type { %"struct.std::_Vector_base.56" }
%"struct.std::_Vector_base.56" = type { %"struct.std::_Vector_base<Luau::AstExpr *, std::allocator<Luau::AstExpr *>>::_Vector_impl" }
%"struct.std::_Vector_base<Luau::AstExpr *, std::allocator<Luau::AstExpr *>>::_Vector_impl" = type { %"struct.std::_Vector_base<Luau::AstExpr *, std::allocator<Luau::AstExpr *>>::_Vector_impl_data" }
%"struct.std::_Vector_base<Luau::AstExpr *, std::allocator<Luau::AstExpr *>>::_Vector_impl_data" = type { ptr, ptr, ptr }
%"class.std::vector.60" = type { %"struct.std::_Vector_base.61" }
%"struct.std::_Vector_base.61" = type { %"struct.std::_Vector_base<Luau::AstName, std::allocator<Luau::AstName>>::_Vector_impl" }
%"struct.std::_Vector_base<Luau::AstName, std::allocator<Luau::AstName>>::_Vector_impl" = type { %"struct.std::_Vector_base<Luau::AstName, std::allocator<Luau::AstName>>::_Vector_impl_data" }
%"struct.std::_Vector_base<Luau::AstName, std::allocator<Luau::AstName>>::_Vector_impl_data" = type { ptr, ptr, ptr }
%"class.std::vector.65" = type { %"struct.std::_Vector_base.66" }
%"struct.std::_Vector_base.66" = type { %"struct.std::_Vector_base<Luau::Parser::Binding, std::allocator<Luau::Parser::Binding>>::_Vector_impl" }
%"struct.std::_Vector_base<Luau::Parser::Binding, std::allocator<Luau::Parser::Binding>>::_Vector_impl" = type { %"struct.std::_Vector_base<Luau::Parser::Binding, std::allocator<Luau::Parser::Binding>>::_Vector_impl_data" }
%"struct.std::_Vector_base<Luau::Parser::Binding, std::allocator<Luau::Parser::Binding>>::_Vector_impl_data" = type { ptr, ptr, ptr }
%"class.std::vector.18" = type { %"struct.std::_Vector_base.19" }
%"struct.std::_Vector_base.19" = type { %"struct.std::_Vector_base<Luau::AstLocal *, std::allocator<Luau::AstLocal *>>::_Vector_impl" }
%"struct.std::_Vector_base<Luau::AstLocal *, std::allocator<Luau::AstLocal *>>::_Vector_impl" = type { %"struct.std::_Vector_base<Luau::AstLocal *, std::allocator<Luau::AstLocal *>>::_Vector_impl_data" }
%"struct.std::_Vector_base<Luau::AstLocal *, std::allocator<Luau::AstLocal *>>::_Vector_impl_data" = type { ptr, ptr, ptr }
%"class.std::vector.70" = type { %"struct.std::_Vector_base.71" }
%"struct.std::_Vector_base.71" = type { %"struct.std::_Vector_base<Luau::AstTableProp, std::allocator<Luau::AstTableProp>>::_Vector_impl" }
%"struct.std::_Vector_base<Luau::AstTableProp, std::allocator<Luau::AstTableProp>>::_Vector_impl" = type { %"struct.std::_Vector_base<Luau::AstTableProp, std::allocator<Luau::AstTableProp>>::_Vector_impl_data" }
%"struct.std::_Vector_base<Luau::AstTableProp, std::allocator<Luau::AstTableProp>>::_Vector_impl_data" = type { ptr, ptr, ptr }
%"class.std::vector.75" = type { %"struct.std::_Vector_base.76" }
%"struct.std::_Vector_base.76" = type { %"struct.std::_Vector_base<Luau::CstTypeTable::Item, std::allocator<Luau::CstTypeTable::Item>>::_Vector_impl" }
%"struct.std::_Vector_base<Luau::CstTypeTable::Item, std::allocator<Luau::CstTypeTable::Item>>::_Vector_impl" = type { %"struct.std::_Vector_base<Luau::CstTypeTable::Item, std::allocator<Luau::CstTypeTable::Item>>::_Vector_impl_data" }
%"struct.std::_Vector_base<Luau::CstTypeTable::Item, std::allocator<Luau::CstTypeTable::Item>>::_Vector_impl_data" = type { ptr, ptr, ptr }
%"class.std::vector.80" = type { %"struct.std::_Vector_base.81" }
%"struct.std::_Vector_base.81" = type { %"struct.std::_Vector_base<Luau::AstType *, std::allocator<Luau::AstType *>>::_Vector_impl" }
%"struct.std::_Vector_base<Luau::AstType *, std::allocator<Luau::AstType *>>::_Vector_impl" = type { %"struct.std::_Vector_base<Luau::AstType *, std::allocator<Luau::AstType *>>::_Vector_impl_data" }
%"struct.std::_Vector_base<Luau::AstType *, std::allocator<Luau::AstType *>>::_Vector_impl_data" = type { ptr, ptr, ptr }
%"class.std::vector.85" = type { %"struct.std::_Vector_base.86" }
%"struct.std::_Vector_base.86" = type { %"struct.std::_Vector_base<Luau::AstTypeOrPack, std::allocator<Luau::AstTypeOrPack>>::_Vector_impl" }
%"struct.std::_Vector_base<Luau::AstTypeOrPack, std::allocator<Luau::AstTypeOrPack>>::_Vector_impl" = type { %"struct.std::_Vector_base<Luau::AstTypeOrPack, std::allocator<Luau::AstTypeOrPack>>::_Vector_impl_data" }
%"struct.std::_Vector_base<Luau::AstTypeOrPack, std::allocator<Luau::AstTypeOrPack>>::_Vector_impl_data" = type { ptr, ptr, ptr }
%"class.std::vector.90" = type { %"struct.std::_Vector_base.91" }
%"struct.std::_Vector_base.91" = type { %"struct.std::_Vector_base<Luau::AstDeclaredClassProp, std::allocator<Luau::AstDeclaredClassProp>>::_Vector_impl" }
%"struct.std::_Vector_base<Luau::AstDeclaredClassProp, std::allocator<Luau::AstDeclaredClassProp>>::_Vector_impl" = type { %"struct.std::_Vector_base<Luau::AstDeclaredClassProp, std::allocator<Luau::AstDeclaredClassProp>>::_Vector_impl_data" }
%"struct.std::_Vector_base<Luau::AstDeclaredClassProp, std::allocator<Luau::AstDeclaredClassProp>>::_Vector_impl_data" = type { ptr, ptr, ptr }
%"class.std::vector.95" = type { %"struct.std::_Vector_base.96" }
%"struct.std::_Vector_base.96" = type { %"struct.std::_Vector_base<Luau::AstExprTable::Item, std::allocator<Luau::AstExprTable::Item>>::_Vector_impl" }
%"struct.std::_Vector_base<Luau::AstExprTable::Item, std::allocator<Luau::AstExprTable::Item>>::_Vector_impl" = type { %"struct.std::_Vector_base<Luau::AstExprTable::Item, std::allocator<Luau::AstExprTable::Item>>::_Vector_impl_data" }
%"struct.std::_Vector_base<Luau::AstExprTable::Item, std::allocator<Luau::AstExprTable::Item>>::_Vector_impl_data" = type { ptr, ptr, ptr }
%"class.std::vector.100" = type { %"struct.std::_Vector_base.101" }
%"struct.std::_Vector_base.101" = type { %"struct.std::_Vector_base<Luau::CstExprTable::Item, std::allocator<Luau::CstExprTable::Item>>::_Vector_impl" }
%"struct.std::_Vector_base<Luau::CstExprTable::Item, std::allocator<Luau::CstExprTable::Item>>::_Vector_impl" = type { %"struct.std::_Vector_base<Luau::CstExprTable::Item, std::allocator<Luau::CstExprTable::Item>>::_Vector_impl_data" }
%"struct.std::_Vector_base<Luau::CstExprTable::Item, std::allocator<Luau::CstExprTable::Item>>::_Vector_impl_data" = type { ptr, ptr, ptr }
%"class.std::vector.105" = type { %"struct.std::_Vector_base.106" }
%"struct.std::_Vector_base.106" = type { %"struct.std::_Vector_base<std::pair<Luau::AstName, Luau::Location>, std::allocator<std::pair<Luau::AstName, Luau::Location>>>::_Vector_impl" }
%"struct.std::_Vector_base<std::pair<Luau::AstName, Luau::Location>, std::allocator<std::pair<Luau::AstName, Luau::Location>>>::_Vector_impl" = type { %"struct.std::_Vector_base<std::pair<Luau::AstName, Luau::Location>, std::allocator<std::pair<Luau::AstName, Luau::Location>>>::_Vector_impl_data" }
%"struct.std::_Vector_base<std::pair<Luau::AstName, Luau::Location>, std::allocator<std::pair<Luau::AstName, Luau::Location>>>::_Vector_impl_data" = type { ptr, ptr, ptr }
%"class.std::vector.110" = type { %"struct.std::_Vector_base.111" }
%"struct.std::_Vector_base.111" = type { %"struct.std::_Vector_base<Luau::AstGenericType *, std::allocator<Luau::AstGenericType *>>::_Vector_impl" }
%"struct.std::_Vector_base<Luau::AstGenericType *, std::allocator<Luau::AstGenericType *>>::_Vector_impl" = type { %"struct.std::_Vector_base<Luau::AstGenericType *, std::allocator<Luau::AstGenericType *>>::_Vector_impl_data" }
%"struct.std::_Vector_base<Luau::AstGenericType *, std::allocator<Luau::AstGenericType *>>::_Vector_impl_data" = type { ptr, ptr, ptr }
%"class.std::vector.115" = type { %"struct.std::_Vector_base.116" }
%"struct.std::_Vector_base.116" = type { %"struct.std::_Vector_base<Luau::AstGenericTypePack *, std::allocator<Luau::AstGenericTypePack *>>::_Vector_impl" }
%"struct.std::_Vector_base<Luau::AstGenericTypePack *, std::allocator<Luau::AstGenericTypePack *>>::_Vector_impl" = type { %"struct.std::_Vector_base<Luau::AstGenericTypePack *, std::allocator<Luau::AstGenericTypePack *>>::_Vector_impl_data" }
%"struct.std::_Vector_base<Luau::AstGenericTypePack *, std::allocator<Luau::AstGenericTypePack *>>::_Vector_impl_data" = type { ptr, ptr, ptr }
%"class.std::vector.120" = type { %"struct.std::_Vector_base.121" }
%"struct.std::_Vector_base.121" = type { %"struct.std::_Vector_base<std::optional<std::pair<Luau::AstName, Luau::Location>>, std::allocator<std::optional<std::pair<Luau::AstName, Luau::Location>>>>::_Vector_impl" }
%"struct.std::_Vector_base<std::optional<std::pair<Luau::AstName, Luau::Location>>, std::allocator<std::optional<std::pair<Luau::AstName, Luau::Location>>>>::_Vector_impl" = type { %"struct.std::_Vector_base<std::optional<std::pair<Luau::AstName, Luau::Location>>, std::allocator<std::optional<std::pair<Luau::AstName, Luau::Location>>>>::_Vector_impl_data" }
%"struct.std::_Vector_base<std::optional<std::pair<Luau::AstName, Luau::Location>>, std::allocator<std::optional<std::pair<Luau::AstName, Luau::Location>>>>::_Vector_impl_data" = type { ptr, ptr, ptr }
%"class.std::vector.125" = type { %"struct.std::_Vector_base.126" }
%"struct.std::_Vector_base.126" = type { %"struct.std::_Vector_base<Luau::Position, std::allocator<Luau::Position>>::_Vector_impl" }
%"struct.std::_Vector_base<Luau::Position, std::allocator<Luau::Position>>::_Vector_impl" = type { %"struct.std::_Vector_base<Luau::Position, std::allocator<Luau::Position>>::_Vector_impl_data" }
%"struct.std::_Vector_base<Luau::Position, std::allocator<Luau::Position>>::_Vector_impl_data" = type { ptr, ptr, ptr }
%"struct.Luau::AstTypeOrPack" = type { ptr, ptr }

; Function Attrs: mustprogress uwtable
define dso_local noundef ptr @_ZN4Luau6Parser9parseTypeEb(ptr noundef nonnull align 8 dereferenceable(1072) %0, i1 noundef zeroext %1) #3 align 2 {
  %3 = alloca ptr, align 8
  %4 = alloca i8, align 1
  %5 = alloca i32, align 4
  %6 = alloca %"struct.Luau::Location", align 4
  %7 = alloca ptr, align 8
  %8 = alloca i32, align 4
  %9 = alloca %"struct.Luau::AstTypeOrPack", align 8
  %10 = alloca ptr, align 8
  store ptr %0, ptr %3, align 8, !tbaa !85
  %11 = zext i1 %1 to i8
  store i8 %11, ptr %4, align 1, !tbaa !13
  %12 = load ptr, ptr %3, align 8
  call void @llvm.lifetime.start.p0(i64 4, ptr %5) #23
  %13 = getelementptr inbounds nuw %"class.Luau::Parser", ptr %12, i32 0, i32 6
  %14 = load i32, ptr %13, align 4, !tbaa !230
  store i32 %14, ptr %5, align 4, !tbaa !4
  call void @llvm.lifetime.start.p0(i64 16, ptr %6) #23
  %15 = getelementptr inbounds nuw %"class.Luau::Parser", ptr %12, i32 0, i32 1
  %16 = call noundef nonnull align 8 dereferenceable(32) ptr @_ZNK4Luau5Lexer7currentEv(ptr noundef nonnull align 8 dereferenceable(120) %15)
  %17 = getelementptr inbounds nuw %"struct.Luau::Lexeme", ptr %16, i32 0, i32 1
  call void @llvm.memcpy.p0.p0.i64(ptr align 4 %6, ptr align 4 %17, i64 16, i1 false), !tbaa.struct !37
  call void @llvm.lifetime.start.p0(i64 8, ptr %7) #23
  store ptr null, ptr %7, align 8, !tbaa !446
  call void @llvm.lifetime.start.p0(i64 4, ptr %8) #23
  %18 = getelementptr inbounds nuw %"class.Luau::Parser", ptr %12, i32 0, i32 1
  %19 = call noundef nonnull align 8 dereferenceable(32) ptr @_ZNK4Luau5Lexer7currentEv(ptr noundef nonnull align 8 dereferenceable(120) %18)
  %20 = getelementptr inbounds nuw %"struct.Luau::Lexeme", ptr %19, i32 0, i32 0
  %21 = load i32, ptr %20, align 8, !tbaa !87
  store i32 %21, ptr %8, align 4, !tbaa !301
  %22 = load i32, ptr %8, align 4, !tbaa !301
  %23 = icmp ne i32 %22, 124
  br i1 %23, label %24, label %39

24:                                               ; preds = %2
  %25 = load i32, ptr %8, align 4, !tbaa !301
  %26 = icmp ne i32 %25, 38
  br i1 %26, label %27, label %39

27:                                               ; preds = %24
  call void @llvm.lifetime.start.p0(i64 16, ptr %9) #23
  %28 = load i8, ptr %4, align 1, !tbaa !13, !range !17, !noundef !18
  %29 = trunc i8 %28 to i1
  %30 = call { ptr, ptr } @_ZN4Luau6Parser15parseSimpleTypeEbb(ptr noundef nonnull align 8 dereferenceable(1072) %12, i1 noundef zeroext false, i1 noundef zeroext %29)
  %31 = getelementptr inbounds nuw { ptr, ptr }, ptr %9, i32 0, i32 0
  %32 = extractvalue { ptr, ptr } %30, 0
  store ptr %32, ptr %31, align 8
  %33 = getelementptr inbounds nuw { ptr, ptr }, ptr %9, i32 0, i32 1
  %34 = extractvalue { ptr, ptr } %30, 1
  store ptr %34, ptr %33, align 8
  %35 = getelementptr inbounds nuw %"struct.Luau::AstTypeOrPack", ptr %9, i32 0, i32 0
  %36 = load ptr, ptr %35, align 8, !tbaa !584
  store ptr %36, ptr %7, align 8, !tbaa !446
  call void @llvm.lifetime.end.p0(i64 16, ptr %9) #23
  %37 = load i32, ptr %5, align 4, !tbaa !4
  %38 = getelementptr inbounds nuw %"class.Luau::Parser", ptr %12, i32 0, i32 6
  store i32 %37, ptr %38, align 4, !tbaa !230
  br label %39

39:                                               ; preds = %27, %24, %2
  call void @llvm.lifetime.start.p0(i64 8, ptr %10) #23
  %40 = load ptr, ptr %7, align 8, !tbaa !446
  %41 = call noundef ptr @_ZN4Luau6Parser15parseTypeSuffixEPNS_7AstTypeERKNS_8LocationE(ptr noundef nonnull align 8 dereferenceable(1072) %12, ptr noundef %40, ptr noundef nonnull align 4 dereferenceable(16) %6)
  store ptr %41, ptr %10, align 8, !tbaa !446
  %42 = load i32, ptr %5, align 4, !tbaa !4
  %43 = getelementptr inbounds nuw %"class.Luau::Parser", ptr %12, i32 0, i32 6
  store i32 %42, ptr %43, align 4, !tbaa !230
  %44 = load ptr, ptr %10, align 8, !tbaa !446
  call void @llvm.lifetime.end.p0(i64 8, ptr %10) #23
  call void @llvm.lifetime.end.p0(i64 4, ptr %8) #23
  call void @llvm.lifetime.end.p0(i64 8, ptr %7) #23
  call void @llvm.lifetime.end.p0(i64 16, ptr %6) #23
  call void @llvm.lifetime.end.p0(i64 4, ptr %5) #23
  ret ptr %44
}

; Function Attrs: mustprogress nounwind uwtable
define linkonce_odr dso_local noundef nonnull align 8 dereferenceable(32) ptr @_ZNK4Luau5Lexer7currentEv(ptr noundef nonnull align 8 dereferenceable(120) %0) #2 comdat align 2 {
  %2 = alloca ptr, align 8
  store ptr %0, ptr %2, align 8, !tbaa !88
  %3 = load ptr, ptr %2, align 8
  %4 = getelementptr inbounds nuw %"class.Luau::Lexer", ptr %3, i32 0, i32 5
  ret ptr %4
}

; Function Attrs: mustprogress uwtable
define dso_local noundef ptr @_ZN4Luau6Parser17parseOptionalTypeEv(ptr noundef nonnull align 8 dereferenceable(1072) %0) #3 align 2 {
  %2 = alloca ptr, align 8
  %3 = alloca ptr, align 8
  store ptr %0, ptr %3, align 8, !tbaa !85
  %4 = load ptr, ptr %3, align 8
  %5 = getelementptr inbounds nuw %"class.Luau::Parser", ptr %4, i32 0, i32 1
  %6 = call noundef nonnull align 8 dereferenceable(32) ptr @_ZNK4Luau5Lexer7currentEv(ptr noundef nonnull align 8 dereferenceable(120) %5)
  %7 = getelementptr inbounds nuw %"struct.Luau::Lexeme", ptr %6, i32 0, i32 0
  %8 = load i32, ptr %7, align 8, !tbaa !87
  %9 = icmp eq i32 %8, 58
  br i1 %9, label %10, label %12

10:                                               ; preds = %1
  call void @_ZN4Luau6Parser10nextLexemeEv(ptr noundef nonnull align 8 dereferenceable(1072) %4)
  %11 = call noundef ptr @_ZN4Luau6Parser9parseTypeEb(ptr noundef nonnull align 8 dereferenceable(1072) %4, i1 noundef zeroext false)
  store ptr %11, ptr %2, align 8
  br label %13

12:                                               ; preds = %1
  store ptr null, ptr %2, align 8
  br label %13

13:                                               ; preds = %12, %10
  %14 = load ptr, ptr %2, align 8
  ret ptr %14
}