; Function Attrs: mustprogress uwtable
define dso_local noundef ptr @_ZN4Luau6Parser17parseOptionalTypeEv(ptr noundef nonnull align 8 dereferenceable(1072) %0) local_unnamed_addr #2 align 2 {
  %2 = alloca %"struct.Luau::Location", align 4
  %3 = getelementptr inbounds nuw i8, ptr %0, i64 128
  %4 = load i32, ptr %3, align 8, !tbaa !79
  %5 = icmp eq i32 %4, 58
  br i1 %5, label %6, label %15

6:                                                ; preds = %1
  tail call void @_ZN4Luau6Parser10nextLexemeEv(ptr noundef nonnull align 8 dereferenceable(1072) %0)
  %7 = getelementptr inbounds nuw i8, ptr %0, i64 276
  %8 = load i32, ptr %7, align 4, !tbaa !287
  call void @llvm.lifetime.start.p0(i64 16, ptr nonnull %2) #29
  %9 = getelementptr inbounds nuw i8, ptr %0, i64 132
  call void @llvm.memcpy.p0.p0.i64(ptr noundef nonnull align 4 dereferenceable(16) %2, ptr noundef nonnull align 4 dereferenceable(16) %9, i64 16, i1 false), !tbaa.struct !10
  %10 = load i32, ptr %3, align 8, !tbaa !79
  switch i32 %10, label %11 [
    i32 124, label %_ZN4Luau6Parser9parseTypeEb.exit
    i32 38, label %_ZN4Luau6Parser9parseTypeEb.exit
  ]

11:                                               ; preds = %6
  %12 = tail call { ptr, ptr } @_ZN4Luau6Parser15parseSimpleTypeEbb(ptr noundef nonnull align 8 dereferenceable(1072) %0, i1 noundef zeroext false, i1 noundef zeroext false)
  %13 = extractvalue { ptr, ptr } %12, 0
  store i32 %8, ptr %7, align 4, !tbaa !287
  br label %_ZN4Luau6Parser9parseTypeEb.exit

_ZN4Luau6Parser9parseTypeEb.exit:                 ; preds = %6, %6, %11
  %.0.i = phi ptr [ %13, %11 ], [ null, %6 ], [ null, %6 ]
  %14 = call noundef ptr @_ZN4Luau6Parser15parseTypeSuffixEPNS_7AstTypeERKNS_8LocationE(ptr noundef nonnull align 8 dereferenceable(1072) %0, ptr noundef %.0.i, ptr noundef nonnull align 4 dereferenceable(16) %2)
  store i32 %8, ptr %7, align 4, !tbaa !287
  call void @llvm.lifetime.end.p0(i64 16, ptr nonnull %2) #29
  br label %15

15:                                               ; preds = %1, %_ZN4Luau6Parser9parseTypeEb.exit
  %.0 = phi ptr [ %14, %_ZN4Luau6Parser9parseTypeEb.exit ], [ null, %1 ]
  ret ptr %.0
}